; Function Attrs: nounwind uwtable
define hidden void @Wayland_ShowWindowSystemMenu(ptr noundef readonly captures(none) %0, i32 noundef %1, i32 noundef %2) local_unnamed_addr #0 {
  %4 = getelementptr inbounds nuw i8, ptr %0, i64 392
  %5 = load ptr, ptr %4, align 8
  %6 = getelementptr inbounds nuw i8, ptr %5, i64 8
  %7 = load ptr, ptr %6, align 8
  %8 = getelementptr inbounds nuw i8, ptr %7, i64 264
  %9 = load ptr, ptr %8, align 8
  %.not = icmp eq ptr %9, null
  br i1 %.not, label %84, label %10

10:                                               ; preds = %3
  %11 = getelementptr inbounds nuw i8, ptr %5, i64 403
  %12 = load i8, ptr %11, align 1, !range !5, !noundef !6
  %13 = trunc nuw i8 %12 to i1
  br i1 %13, label %14, label %PixelToPoint.exit25

14:                                               ; preds = %10
  %.not.i = icmp eq i32 %1, 0
  br i1 %.not.i, label %PixelToPoint.exit, label %GetWindowScale.exit.i

GetWindowScale.exit.i:                            ; preds = %14
  %15 = sitofp i32 %1 to double
  %16 = getelementptr inbounds nuw i8, ptr %5, i64 248
  %17 = load double, ptr %16, align 8
  %18 = fdiv double %15, %17
  %19 = tail call i64 @SDL_lround_REAL(double noundef %18) #15
  %20 = trunc i64 %19 to i32
  %21 = icmp sgt i32 %20, 1
  br i1 %21, label %22, label %PixelToPoint.exit

22:                                               ; preds = %GetWindowScale.exit.i
  %23 = getelementptr inbounds nuw i8, ptr %0, i64 72
  %24 = load i64, ptr %23, align 8
  %25 = and i64 %24, 8192
  %.not.i4.i = icmp eq i64 %25, 0
  %26 = load ptr, ptr %4, align 8
  br i1 %.not.i4.i, label %27, label %._crit_edge.i5.i

27:                                               ; preds = %22
  %28 = getelementptr inbounds nuw i8, ptr %26, i64 403
  %29 = load i8, ptr %28, align 1, !range !5, !noundef !6
  %30 = trunc nuw i8 %29 to i1
  br i1 %30, label %._crit_edge.i5.i, label %GetWindowScale.exit6.i

._crit_edge.i5.i:                                 ; preds = %27, %22
  %31 = getelementptr inbounds nuw i8, ptr %26, i64 248
  %32 = load double, ptr %31, align 8
  br label %GetWindowScale.exit6.i

GetWindowScale.exit6.i:                           ; preds = %._crit_edge.i5.i, %27
  %33 = phi double [ %32, %._crit_edge.i5.i ], [ 1.000000e+00, %27 ]
  %34 = fdiv double %15, %33
  %35 = tail call i64 @SDL_lround_REAL(double noundef %34) #15
  %36 = trunc i64 %35 to i32
  br label %PixelToPoint.exit

PixelToPoint.exit:                                ; preds = %14, %GetWindowScale.exit.i, %GetWindowScale.exit6.i
  %37 = phi i32 [ %36, %GetWindowScale.exit6.i ], [ 1, %GetWindowScale.exit.i ], [ 0, %14 ]
  %.not.i18 = icmp eq i32 %2, 0
  br i1 %.not.i18, label %PixelToPoint.exit25, label %38

38:                                               ; preds = %PixelToPoint.exit
  %39 = sitofp i32 %2 to double
  %40 = getelementptr inbounds nuw i8, ptr %0, i64 72
  %41 = load i64, ptr %40, align 8
  %42 = and i64 %41, 8192
  %.not.i.i19 = icmp eq i64 %42, 0
  %43 = load ptr, ptr %4, align 8
  br i1 %.not.i.i19, label %44, label %._crit_edge.i.i20

44:                                               ; preds = %38
  %45 = getelementptr inbounds nuw i8, ptr %43, i64 403
  %46 = load i8, ptr %45, align 1, !range !5, !noundef !6
  %47 = trunc nuw i8 %46 to i1
  br i1 %47, label %._crit_edge.i.i20, label %GetWindowScale.exit.i21

._crit_edge.i.i20:                                ; preds = %44, %38
  %48 = getelementptr inbounds nuw i8, ptr %43, i64 248
  %49 = load double, ptr %48, align 8
  br label %GetWindowScale.exit.i21

GetWindowScale.exit.i21:                          ; preds = %._crit_edge.i.i20, %44
  %50 = phi double [ %49, %._crit_edge.i.i20 ], [ 1.000000e+00, %44 ]
  %51 = fdiv double %39, %50
  %52 = tail call i64 @SDL_lround_REAL(double noundef %51) #15
  %53 = trunc i64 %52 to i32
  %54 = icmp sgt i32 %53, 1
  br i1 %54, label %55, label %PixelToPoint.exit25

55:                                               ; preds = %GetWindowScale.exit.i21
  %56 = load i64, ptr %40, align 8
  %57 = and i64 %56, 8192
  %.not.i4.i22 = icmp eq i64 %57, 0
  %58 = load ptr, ptr %4, align 8
  br i1 %.not.i4.i22, label %59, label %._crit_edge.i5.i23

59:                                               ; preds = %55
  %60 = getelementptr inbounds nuw i8, ptr %58, i64 403
  %61 = load i8, ptr %60, align 1, !range !5, !noundef !6
  %62 = trunc nuw i8 %61 to i1
  br i1 %62, label %._crit_edge.i5.i23, label %GetWindowScale.exit6.i24

._crit_edge.i5.i23:                               ; preds = %59, %55
  %63 = getelementptr inbounds nuw i8, ptr %58, i64 248
  %64 = load double, ptr %63, align 8
  br label %GetWindowScale.exit6.i24

GetWindowScale.exit6.i24:                         ; preds = %._crit_edge.i5.i23, %59
  %65 = phi double [ %64, %._crit_edge.i5.i23 ], [ 1.000000e+00, %59 ]
  %66 = fdiv double %39, %65
  %67 = tail call i64 @SDL_lround_REAL(double noundef %66) #15
  %68 = trunc i64 %67 to i32
  br label %PixelToPoint.exit25

PixelToPoint.exit25:                              ; preds = %GetWindowScale.exit6.i24, %GetWindowScale.exit.i21, %PixelToPoint.exit, %10
  %.014 = phi i32 [ %2, %10 ], [ %68, %GetWindowScale.exit6.i24 ], [ 1, %GetWindowScale.exit.i21 ], [ 0, %PixelToPoint.exit ]
  %.0 = phi i32 [ %1, %10 ], [ %37, %GetWindowScale.exit6.i24 ], [ %37, %GetWindowScale.exit.i21 ], [ %37, %PixelToPoint.exit ]
  %69 = getelementptr inbounds nuw i8, ptr %5, i64 88
  %70 = load i32, ptr %69, align 8
  %71 = icmp eq i32 %70, 1
  br i1 %71, label %72, label %84

72:                                               ; preds = %PixelToPoint.exit25
  %73 = getelementptr inbounds nuw i8, ptr %5, i64 64
  %74 = load ptr, ptr %73, align 8
  %.not17 = icmp eq ptr %74, null
  br i1 %.not17, label %84, label %75

75:                                               ; preds = %72
  %76 = getelementptr inbounds nuw i8, ptr %9, i64 8
  %77 = load ptr, ptr %76, align 8
  %78 = getelementptr inbounds nuw i8, ptr %9, i64 56
  %79 = load i32, ptr %78, align 8
  %80 = load ptr, ptr @WAYLAND_wl_proxy_marshal_flags, align 8
  %81 = load ptr, ptr @WAYLAND_wl_proxy_get_version, align 8
  %82 = tail call i32 %81(ptr noundef nonnull %74) #15
  %83 = tail call ptr (ptr, i32, ptr, i32, i32, ...) %80(ptr noundef nonnull %74, i32 noundef 4, ptr noundef null, i32 noundef %82, i32 noundef 0, ptr noundef %77, i32 noundef %79, i32 noundef %.0, i32 noundef %.014) #15
  br label %84

84:                                               ; preds = %PixelToPoint.exit25, %75, %72, %3
  ret void
}